; Function Attrs: nounwind uwtable
define internal i32 @spl_ptr_heap_zval_max_cmp(ptr noundef %0, ptr noundef %1, ptr noundef readonly %2) #0 {
  %4 = alloca %struct._zval_struct, align 8
  %5 = load ptr, ptr getelementptr inbounds (%struct._zend_executor_globals, ptr @executor_globals, i64 0, i32 50), align 8
  %.not = icmp eq ptr %5, null
  br i1 %.not, label %6, label %31

6:                                                ; preds = %3
  %.not12 = icmp eq ptr %2, null
  br i1 %.not12, label %29, label %7

7:                                                ; preds = %6
  %8 = load ptr, ptr %2, align 8
  %9 = getelementptr inbounds i8, ptr %8, i64 -16
  %10 = load ptr, ptr %9, align 8
  %.not13 = icmp eq ptr %10, null
  br i1 %.not13, label %29, label %11

11:                                               ; preds = %7
  call void @llvm.lifetime.start.p0(i64 16, ptr nonnull %4)
  %12 = getelementptr inbounds i8, ptr %8, i64 16
  %13 = load ptr, ptr %12, align 8
  %14 = call ptr @zend_call_method(ptr noundef nonnull %8, ptr noundef %13, ptr noundef nonnull %9, ptr noundef nonnull @.str.6, i64 noundef 7, ptr noundef nonnull %4, i32 noundef 2, ptr noundef %0, ptr noundef %1) #14
  %15 = load ptr, ptr getelementptr inbounds (%struct._zend_executor_globals, ptr @executor_globals, i64 0, i32 50), align 8
  %.not.i = icmp eq ptr %15, null
  br i1 %.not.i, label %16, label %spl_ptr_heap_cmp_cb_helper.exit.thread

spl_ptr_heap_cmp_cb_helper.exit.thread:           ; preds = %11
  call void @llvm.lifetime.end.p0(i64 16, ptr nonnull %4)
  br label %31

16:                                               ; preds = %11
  %17 = getelementptr inbounds i8, ptr %4, i64 8
  %18 = load i8, ptr %17, align 8
  %19 = icmp eq i8 %18, 4
  br i1 %19, label %20, label %22

20:                                               ; preds = %16
  %21 = load i64, ptr %4, align 8
  br label %24

22:                                               ; preds = %16
  %23 = call i64 @zval_get_long_func(ptr noundef nonnull %4, i1 noundef zeroext false) #14
  br label %24

24:                                               ; preds = %22, %20
  %25 = phi i64 [ %21, %20 ], [ %23, %22 ]
  call void @zval_ptr_dtor(ptr noundef nonnull %4) #14
  call void @llvm.lifetime.end.p0(i64 16, ptr nonnull %4)
  %.not14 = icmp eq i64 %25, 0
  %26 = icmp slt i64 %25, 0
  %27 = select i1 %26, i32 -1, i32 1
  %28 = select i1 %.not14, i32 0, i32 %27
  br label %31

29:                                               ; preds = %7, %6
  %30 = tail call i32 @zend_compare(ptr noundef %0, ptr noundef %1) #14
  br label %31

31:                                               ; preds = %spl_ptr_heap_cmp_cb_helper.exit.thread, %3, %29, %24
  %.0 = phi i32 [ %28, %24 ], [ %30, %29 ], [ 0, %3 ], [ 0, %spl_ptr_heap_cmp_cb_helper.exit.thread ]
  ret i32 %.0
}